(dp0
I10
(lp1
(lp2
ccopy_reg
_reconstructor
p3
(cgame_objects.blocks
JNoseDown
p4
c__builtin__
object
p5
Ntp6
Rp7
ag3
(cgame_objects.blocks
TNoseDown
p8
g5
Ntp9
Rp10
ag3
(cgame_objects.blocks
O
p11
g5
Ntp12
Rp13
ag3
(g4
g5
Ntp14
Rp15
ag3
(cgame_objects.blocks
ZHorizontal
p16
g5
Ntp17
Rp18
ag3
(cgame_objects.blocks
IHorizontal
p19
g5
Ntp20
Rp21
ag3
(cgame_objects.blocks
LNoseDown
p22
g5
Ntp23
Rp24
ag3
(g8
g5
Ntp25
Rp26
ag3
(g16
g5
Ntp27
Rp28
ag3
(g11
g5
Ntp29
Rp30
aa(lp31
g3
(g8
g5
Ntp32
Rp33
ag3
(g22
g5
Ntp34
Rp35
ag3
(g11
g5
Ntp36
Rp37
ag3
(g19
g5
Ntp38
Rp39
ag3
(cgame_objects.blocks
SHorizontal
p40
g5
Ntp41
Rp42
ag3
(g4
g5
Ntp43
Rp44
ag3
(g19
g5
Ntp45
Rp46
ag3
(g22
g5
Ntp47
Rp48
ag3
(g11
g5
Ntp49
Rp50
ag3
(g8
g5
Ntp51
Rp52
ag3
(g16
g5
Ntp53
Rp54
ag3
(g4
g5
Ntp55
Rp56
ag3
(g40
g5
Ntp57
Rp58
ag3
(g19
g5
Ntp59
Rp60
ag3
(g8
g5
Ntp61
Rp62
aa(lp63
g3
(g40
g5
Ntp64
Rp65
ag3
(g16
g5
Ntp66
Rp67
ag3
(g11
g5
Ntp68
Rp69
ag3
(g4
g5
Ntp70
Rp71
ag3
(g19
g5
Ntp72
Rp73
aa(lp74
g3
(g40
g5
Ntp75
Rp76
ag3
(g8
g5
Ntp77
Rp78
ag3
(g11
g5
Ntp79
Rp80
ag3
(g16
g5
Ntp81
Rp82
ag3
(g19
g5
Ntp83
Rp84
ag3
(g19
g5
Ntp85
Rp86
ag3
(g40
g5
Ntp87
Rp88
ag3
(g16
g5
Ntp89
Rp90
ag3
(g8
g5
Ntp91
Rp92
ag3
(g40
g5
Ntp93
Rp94
ag3
(g11
g5
Ntp95
Rp96
ag3
(g4
g5
Ntp97
Rp98
ag3
(g40
g5
Ntp99
Rp100
ag3
(g22
g5
Ntp101
Rp102
ag3
(g19
g5
Ntp103
Rp104
ag3
(g8
g5
Ntp105
Rp106
ag3
(g19
g5
Ntp107
Rp108
ag3
(g40
g5
Ntp109
Rp110
ag3
(g22
g5
Ntp111
Rp112
ag3
(g11
g5
Ntp113
Rp114
aa(lp115
g3
(g8
g5
Ntp116
Rp117
ag3
(g40
g5
Ntp118
Rp119
ag3
(g19
g5
Ntp120
Rp121
ag3
(g22
g5
Ntp122
Rp123
ag3
(g4
g5
Ntp124
Rp125
ag3
(g11
g5
Ntp126
Rp127
ag3
(g40
g5
Ntp128
Rp129
ag3
(g16
g5
Ntp130
Rp131
ag3
(g40
g5
Ntp132
Rp133
ag3
(g11
g5
Ntp134
Rp135
ag3
(g22
g5
Ntp136
Rp137
ag3
(g8
g5
Ntp138
Rp139
ag3
(g4
g5
Ntp140
Rp141
ag3
(g19
g5
Ntp142
Rp143
ag3
(g8
g5
Ntp144
Rp145
ag3
(g16
g5
Ntp146
Rp147
ag3
(g19
g5
Ntp148
Rp149
ag3
(g40
g5
Ntp150
Rp151
ag3
(g4
g5
Ntp152
Rp153
ag3
(g22
g5
Ntp154
Rp155
aa(lp156
g3
(g40
g5
Ntp157
Rp158
ag3
(g11
g5
Ntp159
Rp160
ag3
(g8
g5
Ntp161
Rp162
ag3
(g11
g5
Ntp163
Rp164
ag3
(g19
g5
Ntp165
Rp166
ag3
(g4
g5
Ntp167
Rp168
ag3
(g40
g5
Ntp169
Rp170
ag3
(g16
g5
Ntp171
Rp172
ag3
(g8
g5
Ntp173
Rp174
ag3
(g40
g5
Ntp175
Rp176
ag3
(g22
g5
Ntp177
Rp178
ag3
(g11
g5
Ntp179
Rp180
ag3
(g19
g5
Ntp181
Rp182
ag3
(g11
g5
Ntp183
Rp184
ag3
(g4
g5
Ntp185
Rp186
ag3
(g22
g5
Ntp187
Rp188
ag3
(g16
g5
Ntp189
Rp190
ag3
(g11
g5
Ntp191
Rp192
ag3
(g22
g5
Ntp193
Rp194
ag3
(g8
g5
Ntp195
Rp196
ag3
(g4
g5
Ntp197
Rp198
ag3
(g40
g5
Ntp199
Rp200
ag3
(g19
g5
Ntp201
Rp202
ag3
(g22
g5
Ntp203
Rp204
ag3
(g16
g5
Ntp205
Rp206
ag3
(g40
g5
Ntp207
Rp208
ag3
(g8
g5
Ntp209
Rp210
ag3
(g11
g5
Ntp211
Rp212
ag3
(g4
g5
Ntp213
Rp214
ag3
(g19
g5
Ntp215
Rp216
aa(lp217
g3
(g8
g5
Ntp218
Rp219
ag3
(g16
g5
Ntp220
Rp221
ag3
(g11
g5
Ntp222
Rp223
ag3
(g19
g5
Ntp224
Rp225
ag3
(g22
g5
Ntp226
Rp227
ag3
(g4
g5
Ntp228
Rp229
ag3
(g8
g5
Ntp230
Rp231
ag3
(g8
g5
Ntp232
Rp233
ag3
(g11
g5
Ntp234
Rp235
ag3
(g40
g5
Ntp236
Rp237
ag3
(g16
g5
Ntp238
Rp239
ag3
(g19
g5
Ntp240
Rp241
ag3
(g4
g5
Ntp242
Rp243
ag3
(g22
g5
Ntp244
Rp245
ag3
(g16
g5
Ntp246
Rp247
ag3
(g11
g5
Ntp248
Rp249
ag3
(g40
g5
Ntp250
Rp251
ag3
(g8
g5
Ntp252
Rp253
ag3
(g4
g5
Ntp254
Rp255
ag3
(g19
g5
Ntp256
Rp257
ag3
(g11
g5
Ntp258
Rp259
ag3
(g22
g5
Ntp260
Rp261
ag3
(g16
g5
Ntp262
Rp263
ag3
(g40
g5
Ntp264
Rp265
ag3
(g19
g5
Ntp266
Rp267
ag3
(g16
g5
Ntp268
Rp269
ag3
(g22
g5
Ntp270
Rp271
ag3
(g11
g5
Ntp272
Rp273
ag3
(g4
g5
Ntp274
Rp275
ag3
(g4
g5
Ntp276
Rp277
ag3
(g8
g5
Ntp278
Rp279
ag3
(g8
g5
Ntp280
Rp281
ag3
(g4
g5
Ntp282
Rp283
ag3
(g22
g5
Ntp284
Rp285
ag3
(g16
g5
Ntp286
Rp287
ag3
(g40
g5
Ntp288
Rp289
ag3
(g11
g5
Ntp290
Rp291
ag3
(g8
g5
Ntp292
Rp293
ag3
(g19
g5
Ntp294
Rp295
ag3
(g4
g5
Ntp296
Rp297
ag3
(g11
g5
Ntp298
Rp299
ag3
(g8
g5
Ntp300
Rp301
ag3
(g19
g5
Ntp302
Rp303
ag3
(g22
g5
Ntp304
Rp305
ag3
(g16
g5
Ntp306
Rp307
ag3
(g40
g5
Ntp308
Rp309
ag3
(g22
g5
Ntp310
Rp311
ag3
(g40
g5
Ntp312
Rp313
ag3
(g8
g5
Ntp314
Rp315
ag3
(g4
g5
Ntp316
Rp317
aa(lp318
g3
(g8
g5
Ntp319
Rp320
ag3
(g11
g5
Ntp321
Rp322
ag3
(g40
g5
Ntp323
Rp324
ag3
(g16
g5
Ntp325
Rp326
ag3
(g22
g5
Ntp327
Rp328
ag3
(g40
g5
Ntp329
Rp330
ag3
(g4
g5
Ntp331
Rp332
ag3
(g22
g5
Ntp333
Rp334
ag3
(g8
g5
Ntp335
Rp336
ag3
(g40
g5
Ntp337
Rp338
ag3
(g40
g5
Ntp339
Rp340
ag3
(g11
g5
Ntp341
Rp342
ag3
(g19
g5
Ntp343
Rp344
ag3
(g4
g5
Ntp345
Rp346
ag3
(g16
g5
Ntp347
Rp348
ag3
(g16
g5
Ntp349
Rp350
ag3
(g11
g5
Ntp351
Rp352
ag3
(g19
g5
Ntp353
Rp354
ag3
(g22
g5
Ntp355
Rp356
ag3
(g19
g5
Ntp357
Rp358
ag3
(g4
g5
Ntp359
Rp360
ag3
(g8
g5
Ntp361
Rp362
ag3
(g40
g5
Ntp363
Rp364
ag3
(g22
g5
Ntp365
Rp366
ag3
(g4
g5
Ntp367
Rp368
ag3
(g16
g5
Ntp369
Rp370
ag3
(g22
g5
Ntp371
Rp372
ag3
(g11
g5
Ntp373
Rp374
ag3
(g19
g5
Ntp375
Rp376
ag3
(g40
g5
Ntp377
Rp378
ag3
(g8
g5
Ntp379
Rp380
ag3
(g22
g5
Ntp381
Rp382
ag3
(g4
g5
Ntp383
Rp384
ag3
(g40
g5
Ntp385
Rp386
ag3
(g11
g5
Ntp387
Rp388
ag3
(g19
g5
Ntp389
Rp390
ag3
(g11
g5
Ntp391
Rp392
ag3
(g8
g5
Ntp393
Rp394
ag3
(g16
g5
Ntp395
Rp396
ag3
(g19
g5
Ntp397
Rp398
ag3
(g11
g5
Ntp399
Rp400
ag3
(g4
g5
Ntp401
Rp402
ag3
(g22
g5
Ntp403
Rp404
ag3
(g19
g5
Ntp405
Rp406
ag3
(g40
g5
Ntp407
Rp408
ag3
(g8
g5
Ntp409
Rp410
ag3
(g16
g5
Ntp411
Rp412
ag3
(g8
g5
Ntp413
Rp414
ag3
(g40
g5
Ntp415
Rp416
ag3
(g16
g5
Ntp417
Rp418
ag3
(g8
g5
Ntp419
Rp420
ag3
(g19
g5
Ntp421
Rp422
ag3
(g4
g5
Ntp423
Rp424
ag3
(g22
g5
Ntp425
Rp426
ag3
(g11
g5
Ntp427
Rp428
ag3
(g8
g5
Ntp429
Rp430
ag3
(g22
g5
Ntp431
Rp432
ag3
(g4
g5
Ntp433
Rp434
ag3
(g40
g5
Ntp435
Rp436
ag3
(g11
g5
Ntp437
Rp438
ag3
(g19
g5
Ntp439
Rp440
ag3
(g4
g5
Ntp441
Rp442
ag3
(g16
g5
Ntp443
Rp444
ag3
(g8
g5
Ntp445
Rp446
ag3
(g19
g5
Ntp447
Rp448
ag3
(g4
g5
Ntp449
Rp450
ag3
(g11
g5
Ntp451
Rp452
ag3
(g40
g5
Ntp453
Rp454
ag3
(g16
g5
Ntp455
Rp456
ag3
(g22
g5
Ntp457
Rp458
ag3
(g8
g5
Ntp459
Rp460
ag3
(g40
g5
Ntp461
Rp462
ag3
(g8
g5
Ntp463
Rp464
ag3
(g16
g5
Ntp465
Rp466
ag3
(g8
g5
Ntp467
Rp468
ag3
(g4
g5
Ntp469
Rp470
ag3
(g11
g5
Ntp471
Rp472
ag3
(g19
g5
Ntp473
Rp474
ag3
(g22
g5
Ntp475
Rp476
ag3
(g22
g5
Ntp477
Rp478
ag3
(g40
g5
Ntp479
Rp480
ag3
(g8
g5
Ntp481
Rp482
ag3
(g11
g5
Ntp483
Rp484
ag3
(g4
g5
Ntp485
Rp486
ag3
(g19
g5
Ntp487
Rp488
ag3
(g8
g5
Ntp489
Rp490
ag3
(g16
g5
Ntp491
Rp492
ag3
(g8
g5
Ntp493
Rp494
ag3
(g11
g5
Ntp495
Rp496
ag3
(g22
g5
Ntp497
Rp498
aa(lp499
g3
(g8
g5
Ntp500
Rp501
ag3
(g40
g5
Ntp502
Rp503
ag3
(g4
g5
Ntp504
Rp505
ag3
(g19
g5
Ntp506
Rp507
ag3
(g16
g5
Ntp508
Rp509
ag3
(g22
g5
Ntp510
Rp511
ag3
(g22
g5
Ntp512
Rp513
ag3
(g16
g5
Ntp514
Rp515
ag3
(g22
g5
Ntp516
Rp517
ag3
(g8
g5
Ntp518
Rp519
ag3
(g40
g5
Ntp520
Rp521
ag3
(g11
g5
Ntp522
Rp523
ag3
(g4
g5
Ntp524
Rp525
ag3
(g22
g5
Ntp526
Rp527
ag3
(g19
g5
Ntp528
Rp529
ag3
(g40
g5
Ntp530
Rp531
ag3
(g22
g5
Ntp532
Rp533
ag3
(g8
g5
Ntp534
Rp535
ag3
(g16
g5
Ntp536
Rp537
ag3
(g11
g5
Ntp538
Rp539
ag3
(g11
g5
Ntp540
Rp541
ag3
(g4
g5
Ntp542
Rp543
ag3
(g19
g5
Ntp544
Rp545
ag3
(g4
g5
Ntp546
Rp547
ag3
(g8
g5
Ntp548
Rp549
ag3
(g40
g5
Ntp550
Rp551
ag3
(g11
g5
Ntp552
Rp553
ag3
(g22
g5
Ntp554
Rp555
ag3
(g19
g5
Ntp556
Rp557
ag3
(g16
g5
Ntp558
Rp559
ag3
(g4
g5
Ntp560
Rp561
ag3
(g8
g5
Ntp562
Rp563
ag3
(g19
g5
Ntp564
Rp565
ag3
(g22
g5
Ntp566
Rp567
ag3
(g40
g5
Ntp568
Rp569
ag3
(g16
g5
Ntp570
Rp571
ag3
(g16
g5
Ntp572
Rp573
ag3
(g11
g5
Ntp574
Rp575
ag3
(g4
g5
Ntp576
Rp577
ag3
(g4
g5
Ntp578
Rp579
ag3
(g11
g5
Ntp580
Rp581
ag3
(g11
g5
Ntp582
Rp583
ag3
(g16
g5
Ntp584
Rp585
ag3
(g19
g5
Ntp586
Rp587
ag3
(g40
g5
Ntp588
Rp589
ag3
(g22
g5
Ntp590
Rp591
ag3
(g8
g5
Ntp592
Rp593
ag3
(g16
g5
Ntp594
Rp595
ag3
(g22
g5
Ntp596
Rp597
ag3
(g8
g5
Ntp598
Rp599
ag3
(g40
g5
Ntp600
Rp601
ag3
(g11
g5
Ntp602
Rp603
ag3
(g19
g5
Ntp604
Rp605
ag3
(g4
g5
Ntp606
Rp607
ag3
(g22
g5
Ntp608
Rp609
ag3
(g19
g5
Ntp610
Rp611
ag3
(g22
g5
Ntp612
Rp613
ag3
(g8
g5
Ntp614
Rp615
ag3
(g4
g5
Ntp616
Rp617
ag3
(g11
g5
Ntp618
Rp619
ag3
(g40
g5
Ntp620
Rp621
ag3
(g4
g5
Ntp622
Rp623
ag3
(g16
g5
Ntp624
Rp625
ag3
(g22
g5
Ntp626
Rp627
ag3
(g40
g5
Ntp628
Rp629
ag3
(g22
g5
Ntp630
Rp631
ag3
(g19
g5
Ntp632
Rp633
ag3
(g4
g5
Ntp634
Rp635
ag3
(g11
g5
Ntp636
Rp637
ag3
(g16
g5
Ntp638
Rp639
ag3
(g8
g5
Ntp640
Rp641
ag3
(g22
g5
Ntp642
Rp643
ag3
(g11
g5
Ntp644
Rp645
ag3
(g19
g5
Ntp646
Rp647
ag3
(g40
g5
Ntp648
Rp649
ag3
(g16
g5
Ntp650
Rp651
ag3
(g4
g5
Ntp652
Rp653
ag3
(g8
g5
Ntp654
Rp655
ag3
(g8
g5
Ntp656
Rp657
ag3
(g11
g5
Ntp658
Rp659
ag3
(g40
g5
Ntp660
Rp661
ag3
(g4
g5
Ntp662
Rp663
ag3
(g16
g5
Ntp664
Rp665
ag3
(g19
g5
Ntp666
Rp667
ag3
(g22
g5
Ntp668
Rp669
ag3
(g11
g5
Ntp670
Rp671
ag3
(g8
g5
Ntp672
Rp673
ag3
(g16
g5
Ntp674
Rp675
ag3
(g11
g5
Ntp676
Rp677
ag3
(g40
g5
Ntp678
Rp679
aa(lp680
g3
(g16
g5
Ntp681
Rp682
ag3
(g40
g5
Ntp683
Rp684
ag3
(g11
g5
Ntp685
Rp686
ag3
(g4
g5
Ntp687
Rp688
ag3
(g8
g5
Ntp689
Rp690
ag3
(g19
g5
Ntp691
Rp692
ag3
(g22
g5
Ntp693
Rp694
ag3
(g8
g5
Ntp695
Rp696
ag3
(g11
g5
Ntp697
Rp698
ag3
(g8
g5
Ntp699
Rp700
ag3
(g19
g5
Ntp701
Rp702
ag3
(g4
g5
Ntp703
Rp704
ag3
(g40
g5
Ntp705
Rp706
ag3
(g22
g5
Ntp707
Rp708
ag3
(g16
g5
Ntp709
Rp710
ag3
(g16
g5
Ntp711
Rp712
ag3
(g8
g5
Ntp713
Rp714
ag3
(g40
g5
Ntp715
Rp716
ag3
(g22
g5
Ntp717
Rp718
ag3
(g11
g5
Ntp719
Rp720
ag3
(g19
g5
Ntp721
Rp722
ag3
(g8
g5
Ntp723
Rp724
ag3
(g4
g5
Ntp725
Rp726
ag3
(g16
g5
Ntp727
Rp728
ag3
(g8
g5
Ntp729
Rp730
ag3
(g4
g5
Ntp731
Rp732
ag3
(g40
g5
Ntp733
Rp734
ag3
(g22
g5
Ntp735
Rp736
ag3
(g11
g5
Ntp737
Rp738
ag3
(g19
g5
Ntp739
Rp740
aa(lp741
g3
(g4
g5
Ntp742
Rp743
ag3
(g40
g5
Ntp744
Rp745
ag3
(g22
g5
Ntp746
Rp747
ag3
(g40
g5
Ntp748
Rp749
ag3
(g4
g5
Ntp750
Rp751
ag3
(g11
g5
Ntp752
Rp753
ag3
(g19
g5
Ntp754
Rp755
ag3
(g16
g5
Ntp756
Rp757
ag3
(g8
g5
Ntp758
Rp759
ag3
(g11
g5
Ntp760
Rp761
ag3
(g19
g5
Ntp762
Rp763
ag3
(g19
g5
Ntp764
Rp765
ag3
(g22
g5
Ntp766
Rp767
ag3
(g4
g5
Ntp768
Rp769
ag3
(g16
g5
Ntp770
Rp771
ag3
(g40
g5
Ntp772
Rp773
ag3
(g22
g5
Ntp774
Rp775
ag3
(g11
g5
Ntp776
Rp777
ag3
(g8
g5
Ntp778
Rp779
ag3
(g19
g5
Ntp780
Rp781
ag3
(g16
g5
Ntp782
Rp783
ag3
(g11
g5
Ntp784
Rp785
ag3
(g4
g5
Ntp786
Rp787
ag3
(g40
g5
Ntp788
Rp789
ag3
(g40
g5
Ntp790
Rp791
ag3
(g8
g5
Ntp792
Rp793
ag3
(g11
g5
Ntp794
Rp795
ag3
(g16
g5
Ntp796
Rp797
ag3
(g4
g5
Ntp798
Rp799
ag3
(g22
g5
Ntp800
Rp801
ag3
(g19
g5
Ntp802
Rp803
ag3
(g11
g5
Ntp804
Rp805
ag3
(g11
g5
Ntp806
Rp807
ag3
(g19
g5
Ntp808
Rp809
ag3
(g8
g5
Ntp810
Rp811
ag3
(g16
g5
Ntp812
Rp813
ag3
(g22
g5
Ntp814
Rp815
ag3
(g4
g5
Ntp816
Rp817
ag3
(g40
g5
Ntp818
Rp819
ag3
(g4
g5
Ntp820
Rp821
aa(lp822
g3
(g4
g5
Ntp823
Rp824
ag3
(g22
g5
Ntp825
Rp826
ag3
(g40
g5
Ntp827
Rp828
ag3
(g11
g5
Ntp829
Rp830
ag3
(g19
g5
Ntp831
Rp832
ag3
(g8
g5
Ntp833
Rp834
ag3
(g8
g5
Ntp835
Rp836
ag3
(g22
g5
Ntp837
Rp838
ag3
(g8
g5
Ntp839
Rp840
ag3
(g8
g5
Ntp841
Rp842
ag3
(g40
g5
Ntp843
Rp844
ag3
(g4
g5
Ntp845
Rp846
ag3
(g11
g5
Ntp847
Rp848
ag3
(g16
g5
Ntp849
Rp850
ag3
(g19
g5
Ntp851
Rp852
ag3
(g11
g5
Ntp853
Rp854
ag3
(g16
g5
Ntp855
Rp856
ag3
(g22
g5
Ntp857
Rp858
ag3
(g11
g5
Ntp859
Rp860
ag3
(g19
g5
Ntp861
Rp862
ag3
(g8
g5
Ntp863
Rp864
ag3
(g40
g5
Ntp865
Rp866
ag3
(g4
g5
Ntp867
Rp868
ag3
(g40
g5
Ntp869
Rp870
ag3
(g22
g5
Ntp871
Rp872
ag3
(g16
g5
Ntp873
Rp874
ag3
(g8
g5
Ntp875
Rp876
ag3
(g11
g5
Ntp877
Rp878
ag3
(g19
g5
Ntp879
Rp880
ag3
(g4
g5
Ntp881
Rp882
ag3
(g40
g5
Ntp883
Rp884
ag3
(g11
g5
Ntp885
Rp886
ag3
(g22
g5
Ntp887
Rp888
ag3
(g16
g5
Ntp889
Rp890
ag3
(g8
g5
Ntp891
Rp892
ag3
(g40
g5
Ntp893
Rp894
ag3
(g19
g5
Ntp895
Rp896
ag3
(g4
g5
Ntp897
Rp898
ag3
(g11
g5
Ntp899
Rp900
ag3
(g40
g5
Ntp901
Rp902
ag3
(g19
g5
Ntp903
Rp904
ag3
(g16
g5
Ntp905
Rp906
ag3
(g22
g5
Ntp907
Rp908
ag3
(g4
g5
Ntp909
Rp910
ag3
(g11
g5
Ntp911
Rp912
ag3
(g19
g5
Ntp913
Rp914
ag3
(g8
g5
Ntp915
Rp916
ag3
(g19
g5
Ntp917
Rp918
ag3
(g16
g5
Ntp919
Rp920
ag3
(g40
g5
Ntp921
Rp922
ag3
(g22
g5
Ntp923
Rp924
ag3
(g11
g5
Ntp925
Rp926
ag3
(g8
g5
Ntp927
Rp928
ag3
(g4
g5
Ntp929
Rp930
ag3
(g19
g5
Ntp931
Rp932
ag3
(g4
g5
Ntp933
Rp934
ag3
(g11
g5
Ntp935
Rp936
ag3
(g16
g5
Ntp937
Rp938
ag3
(g40
g5
Ntp939
Rp940
ag3
(g19
g5
Ntp941
Rp942
ag3
(g22
g5
Ntp943
Rp944
ag3
(g8
g5
Ntp945
Rp946
ag3
(g19
g5
Ntp947
Rp948
ag3
(g8
g5
Ntp949
Rp950
ag3
(g16
g5
Ntp951
Rp952
ag3
(g4
g5
Ntp953
Rp954
ag3
(g22
g5
Ntp955
Rp956
ag3
(g11
g5
Ntp957
Rp958
ag3
(g19
g5
Ntp959
Rp960
ag3
(g22
g5
Ntp961
Rp962
ag3
(g40
g5
Ntp963
Rp964
ag3
(g8
g5
Ntp965
Rp966
ag3
(g22
g5
Ntp967
Rp968
ag3
(g4
g5
Ntp969
Rp970
ag3
(g40
g5
Ntp971
Rp972
ag3
(g22
g5
Ntp973
Rp974
ag3
(g16
g5
Ntp975
Rp976
ag3
(g11
g5
Ntp977
Rp978
ag3
(g19
g5
Ntp979
Rp980
ag3
(g22
g5
Ntp981
Rp982
ag3
(g4
g5
Ntp983
Rp984
ag3
(g40
g5
Ntp985
Rp986
ag3
(g16
g5
Ntp987
Rp988
ag3
(g19
g5
Ntp989
Rp990
ag3
(g11
g5
Ntp991
Rp992
ag3
(g4
g5
Ntp993
Rp994
ag3
(g8
g5
Ntp995
Rp996
ag3
(g16
g5
Ntp997
Rp998
ag3
(g16
g5
Ntp999
Rp1000
ag3
(g40
g5
Ntp1001
Rp1002
ag3
(g8
g5
Ntp1003
Rp1004
ag3
(g19
g5
Ntp1005
Rp1006
ag3
(g22
g5
Ntp1007
Rp1008
ag3
(g11
g5
Ntp1009
Rp1010
ag3
(g4
g5
Ntp1011
Rp1012
ag3
(g22
g5
Ntp1013
Rp1014
ag3
(g8
g5
Ntp1015
Rp1016
ag3
(g11
g5
Ntp1017
Rp1018
ag3
(g4
g5
Ntp1019
Rp1020
ag3
(g19
g5
Ntp1021
Rp1022
ag3
(g40
g5
Ntp1023
Rp1024
ag3
(g16
g5
Ntp1025
Rp1026
ag3
(g19
g5
Ntp1027
Rp1028
ag3
(g8
g5
Ntp1029
Rp1030
ag3
(g16
g5
Ntp1031
Rp1032
ag3
(g11
g5
Ntp1033
Rp1034
ag3
(g4
g5
Ntp1035
Rp1036
ag3
(g19
g5
Ntp1037
Rp1038
ag3
(g22
g5
Ntp1039
Rp1040
ag3
(g11
g5
Ntp1041
Rp1042
ag3
(g40
g5
Ntp1043
Rp1044
ag3
(g8
g5
Ntp1045
Rp1046
ag3
(g40
g5
Ntp1047
Rp1048
ag3
(g22
g5
Ntp1049
Rp1050
ag3
(g11
g5
Ntp1051
Rp1052
ag3
(g16
g5
Ntp1053
Rp1054
ag3
(g19
g5
Ntp1055
Rp1056
ag3
(g19
g5
Ntp1057
Rp1058
ag3
(g4
g5
Ntp1059
Rp1060
ag3
(g22
g5
Ntp1061
Rp1062
ag3
(g11
g5
Ntp1063
Rp1064
ag3
(g40
g5
Ntp1065
Rp1066
ag3
(g8
g5
Ntp1067
Rp1068
ag3
(g4
g5
Ntp1069
Rp1070
ag3
(g19
g5
Ntp1071
Rp1072
ag3
(g16
g5
Ntp1073
Rp1074
ag3
(g19
g5
Ntp1075
Rp1076
ag3
(g19
g5
Ntp1077
Rp1078
ag3
(g40
g5
Ntp1079
Rp1080
ag3
(g16
g5
Ntp1081
Rp1082
ag3
(g19
g5
Ntp1083
Rp1084
ag3
(g22
g5
Ntp1085
Rp1086
ag3
(g4
g5
Ntp1087
Rp1088
ag3
(g11
g5
Ntp1089
Rp1090
ag3
(g8
g5
Ntp1091
Rp1092
ag3
(g19
g5
Ntp1093
Rp1094
ag3
(g11
g5
Ntp1095
Rp1096
ag3
(g11
g5
Ntp1097
Rp1098
ag3
(g8
g5
Ntp1099
Rp1100
ag3
(g22
g5
Ntp1101
Rp1102
ag3
(g40
g5
Ntp1103
Rp1104
ag3
(g16
g5
Ntp1105
Rp1106
ag3
(g4
g5
Ntp1107
Rp1108
ag3
(g8
g5
Ntp1109
Rp1110
ag3
(g16
g5
Ntp1111
Rp1112
ag3
(g11
g5
Ntp1113
Rp1114
ag3
(g16
g5
Ntp1115
Rp1116
ag3
(g19
g5
Ntp1117
Rp1118
ag3
(g4
g5
Ntp1119
Rp1120
ag3
(g22
g5
Ntp1121
Rp1122
ag3
(g40
g5
Ntp1123
Rp1124
ag3
(g40
g5
Ntp1125
Rp1126
ag3
(g16
g5
Ntp1127
Rp1128
ag3
(g4
g5
Ntp1129
Rp1130
ag3
(g22
g5
Ntp1131
Rp1132
ag3
(g11
g5
Ntp1133
Rp1134
ag3
(g40
g5
Ntp1135
Rp1136
ag3
(g19
g5
Ntp1137
Rp1138
ag3
(g8
g5
Ntp1139
Rp1140
ag3
(g22
g5
Ntp1141
Rp1142
ag3
(g8
g5
Ntp1143
Rp1144
ag3
(g40
g5
Ntp1145
Rp1146
ag3
(g16
g5
Ntp1147
Rp1148
ag3
(g11
g5
Ntp1149
Rp1150
ag3
(g19
g5
Ntp1151
Rp1152
ag3
(g4
g5
Ntp1153
Rp1154
ag3
(g11
g5
Ntp1155
Rp1156
ag3
(g8
g5
Ntp1157
Rp1158
ag3
(g16
g5
Ntp1159
Rp1160
ag3
(g11
g5
Ntp1161
Rp1162
ag3
(g22
g5
Ntp1163
Rp1164
ag3
(g4
g5
Ntp1165
Rp1166
ag3
(g11
g5
Ntp1167
Rp1168
ag3
(g40
g5
Ntp1169
Rp1170
ag3
(g19
g5
Ntp1171
Rp1172
ag3
(g19
g5
Ntp1173
Rp1174
ag3
(g40
g5
Ntp1175
Rp1176
ag3
(g40
g5
Ntp1177
Rp1178
ag3
(g4
g5
Ntp1179
Rp1180
ag3
(g22
g5
Ntp1181
Rp1182
ag3
(g16
g5
Ntp1183
Rp1184
ag3
(g8
g5
Ntp1185
Rp1186
ag3
(g11
g5
Ntp1187
Rp1188
ag3
(g8
g5
Ntp1189
Rp1190
ag3
(g11
g5
Ntp1191
Rp1192
ag3
(g4
g5
Ntp1193
Rp1194
ag3
(g40
g5
Ntp1195
Rp1196
ag3
(g22
g5
Ntp1197
Rp1198
ag3
(g16
g5
Ntp1199
Rp1200
ag3
(g16
g5
Ntp1201
Rp1202
ag3
(g19
g5
Ntp1203
Rp1204
ag3
(g11
g5
Ntp1205
Rp1206
ag3
(g4
g5
Ntp1207
Rp1208
ag3
(g19
g5
Ntp1209
Rp1210
ag3
(g40
g5
Ntp1211
Rp1212
ag3
(g8
g5
Ntp1213
Rp1214
ag3
(g22
g5
Ntp1215
Rp1216
ag3
(g19
g5
Ntp1217
Rp1218
ag3
(g16
g5
Ntp1219
Rp1220
ag3
(g40
g5
Ntp1221
Rp1222
ag3
(g19
g5
Ntp1223
Rp1224
ag3
(g22
g5
Ntp1225
Rp1226
ag3
(g4
g5
Ntp1227
Rp1228
ag3
(g8
g5
Ntp1229
Rp1230
ag3
(g11
g5
Ntp1231
Rp1232
ag3
(g8
g5
Ntp1233
Rp1234
ag3
(g16
g5
Ntp1235
Rp1236
ag3
(g4
g5
Ntp1237
Rp1238
ag3
(g8
g5
Ntp1239
Rp1240
ag3
(g40
g5
Ntp1241
Rp1242
ag3
(g19
g5
Ntp1243
Rp1244
ag3
(g22
g5
Ntp1245
Rp1246
ag3
(g40
g5
Ntp1247
Rp1248
ag3
(g16
g5
Ntp1249
Rp1250
ag3
(g11
g5
Ntp1251
Rp1252
ag3
(g4
g5
Ntp1253
Rp1254
ag3
(g16
g5
Ntp1255
Rp1256
ag3
(g11
g5
Ntp1257
Rp1258
ag3
(g19
g5
Ntp1259
Rp1260
ag3
(g22
g5
Ntp1261
Rp1262
ag3
(g40
g5
Ntp1263
Rp1264
ag3
(g8
g5
Ntp1265
Rp1266
ag3
(g40
g5
Ntp1267
Rp1268
ag3
(g22
g5
Ntp1269
Rp1270
ag3
(g16
g5
Ntp1271
Rp1272
ag3
(g8
g5
Ntp1273
Rp1274
ag3
(g40
g5
Ntp1275
Rp1276
ag3
(g16
g5
Ntp1277
Rp1278
ag3
(g11
g5
Ntp1279
Rp1280
ag3
(g4
g5
Ntp1281
Rp1282
ag3
(g19
g5
Ntp1283
Rp1284
ag3
(g16
g5
Ntp1285
Rp1286
ag3
(g8
g5
Ntp1287
Rp1288
ag3
(g4
g5
Ntp1289
Rp1290
ag3
(g11
g5
Ntp1291
Rp1292
ag3
(g40
g5
Ntp1293
Rp1294
ag3
(g11
g5
Ntp1295
Rp1296
ag3
(g19
g5
Ntp1297
Rp1298
ag3
(g22
g5
Ntp1299
Rp1300
ag3
(g19
g5
Ntp1301
Rp1302
ag3
(g22
g5
Ntp1303
Rp1304
ag3
(g16
g5
Ntp1305
Rp1306
ag3
(g8
g5
Ntp1307
Rp1308
ag3
(g40
g5
Ntp1309
Rp1310
ag3
(g4
g5
Ntp1311
Rp1312
ag3
(g4
g5
Ntp1313
Rp1314
ag3
(g11
g5
Ntp1315
Rp1316
ag3
(g40
g5
Ntp1317
Rp1318
ag3
(g4
g5
Ntp1319
Rp1320
ag3
(g22
g5
Ntp1321
Rp1322
ag3
(g4
g5
Ntp1323
Rp1324
ag3
(g19
g5
Ntp1325
Rp1326
ag3
(g11
g5
Ntp1327
Rp1328
ag3
(g8
g5
Ntp1329
Rp1330
ag3
(g16
g5
Ntp1331
Rp1332
ag3
(g40
g5
Ntp1333
Rp1334
ag3
(g8
g5
Ntp1335
Rp1336
ag3
(g16
g5
Ntp1337
Rp1338
ag3
(g11
g5
Ntp1339
Rp1340
ag3
(g4
g5
Ntp1341
Rp1342
ag3
(g22
g5
Ntp1343
Rp1344
ag3
(g19
g5
Ntp1345
Rp1346
ag3
(g4
g5
Ntp1347
Rp1348
ag3
(g11
g5
Ntp1349
Rp1350
ag3
(g16
g5
Ntp1351
Rp1352
ag3
(g19
g5
Ntp1353
Rp1354
ag3
(g4
g5
Ntp1355
Rp1356
ag3
(g40
g5
Ntp1357
Rp1358
ag3
(g22
g5
Ntp1359
Rp1360
ag3
(g8
g5
Ntp1361
Rp1362
ag3
(g8
g5
Ntp1363
Rp1364
ag3
(g40
g5
Ntp1365
Rp1366
ag3
(g16
g5
Ntp1367
Rp1368
ag3
(g22
g5
Ntp1369
Rp1370
ag3
(g19
g5
Ntp1371
Rp1372
ag3
(g11
g5
Ntp1373
Rp1374
ag3
(g19
g5
Ntp1375
Rp1376
ag3
(g8
g5
Ntp1377
Rp1378
ag3
(g4
g5
Ntp1379
Rp1380
ag3
(g40
g5
Ntp1381
Rp1382
ag3
(g8
g5
Ntp1383
Rp1384
ag3
(g22
g5
Ntp1385
Rp1386
ag3
(g19
g5
Ntp1387
Rp1388
ag3
(g11
g5
Ntp1389
Rp1390
ag3
(g22
g5
Ntp1391
Rp1392
ag3
(g16
g5
Ntp1393
Rp1394
ag3
(g4
g5
Ntp1395
Rp1396
ag3
(g8
g5
Ntp1397
Rp1398
ag3
(g40
g5
Ntp1399
Rp1400
ag3
(g11
g5
Ntp1401
Rp1402
ag3
(g16
g5
Ntp1403
Rp1404
ag3
(g4
g5
Ntp1405
Rp1406
ag3
(g22
g5
Ntp1407
Rp1408
ag3
(g19
g5
Ntp1409
Rp1410
ag3
(g19
g5
Ntp1411
Rp1412
ag3
(g8
g5
Ntp1413
Rp1414
ag3
(g40
g5
Ntp1415
Rp1416
ag3
(g22
g5
Ntp1417
Rp1418
ag3
(g11
g5
Ntp1419
Rp1420
ag3
(g19
g5
Ntp1421
Rp1422
ag3
(g4
g5
Ntp1423
Rp1424
ag3
(g11
g5
Ntp1425
Rp1426
ag3
(g16
g5
Ntp1427
Rp1428
ag3
(g8
g5
Ntp1429
Rp1430
ag3
(g16
g5
Ntp1431
Rp1432
ag3
(g22
g5
Ntp1433
Rp1434
ag3
(g40
g5
Ntp1435
Rp1436
ag3
(g11
g5
Ntp1437
Rp1438
ag3
(g4
g5
Ntp1439
Rp1440
ag3
(g19
g5
Ntp1441
Rp1442
ag3
(g16
g5
Ntp1443
Rp1444
ag3
(g8
g5
Ntp1445
Rp1446
ag3
(g11
g5
Ntp1447
Rp1448
ag3
(g19
g5
Ntp1449
Rp1450
ag3
(g40
g5
Ntp1451
Rp1452
ag3
(g8
g5
Ntp1453
Rp1454
ag3
(g4
g5
Ntp1455
Rp1456
ag3
(g22
g5
Ntp1457
Rp1458
ag3
(g16
g5
Ntp1459
Rp1460
ag3
(g8
g5
Ntp1461
Rp1462
ag3
(g11
g5
Ntp1463
Rp1464
ag3
(g40
g5
Ntp1465
Rp1466
ag3
(g16
g5
Ntp1467
Rp1468
ag3
(g4
g5
Ntp1469
Rp1470
ag3
(g40
g5
Ntp1471
Rp1472
ag3
(g19
g5
Ntp1473
Rp1474
ag3
(g22
g5
Ntp1475
Rp1476
ag3
(g40
g5
Ntp1477
Rp1478
ag3
(g4
g5
Ntp1479
Rp1480
ag3
(g16
g5
Ntp1481
Rp1482
ag3
(g11
g5
Ntp1483
Rp1484
ag3
(g22
g5
Ntp1485
Rp1486
ag3
(g19
g5
Ntp1487
Rp1488
ag3
(g8
g5
Ntp1489
Rp1490
ag3
(g22
g5
Ntp1491
Rp1492
ag3
(g16
g5
Ntp1493
Rp1494
ag3
(g40
g5
Ntp1495
Rp1496
ag3
(g8
g5
Ntp1497
Rp1498
ag3
(g11
g5
Ntp1499
Rp1500
ag3
(g4
g5
Ntp1501
Rp1502
ag3
(g19
g5
Ntp1503
Rp1504
ag3
(g19
g5
Ntp1505
Rp1506
ag3
(g22
g5
Ntp1507
Rp1508
ag3
(g22
g5
Ntp1509
Rp1510
ag3
(g8
g5
Ntp1511
Rp1512
ag3
(g11
g5
Ntp1513
Rp1514
ag3
(g22
g5
Ntp1515
Rp1516
ag3
(g19
g5
Ntp1517
Rp1518
ag3
(g4
g5
Ntp1519
Rp1520
ag3
(g16
g5
Ntp1521
Rp1522
ag3
(g40
g5
Ntp1523
Rp1524
ag3
(g4
g5
Ntp1525
Rp1526
ag3
(g8
g5
Ntp1527
Rp1528
ag3
(g11
g5
Ntp1529
Rp1530
ag3
(g22
g5
Ntp1531
Rp1532
ag3
(g16
g5
Ntp1533
Rp1534
ag3
(g40
g5
Ntp1535
Rp1536
ag3
(g19
g5
Ntp1537
Rp1538
ag3
(g22
g5
Ntp1539
Rp1540
ag3
(g40
g5
Ntp1541
Rp1542
ag3
(g22
g5
Ntp1543
Rp1544
ag3
(g8
g5
Ntp1545
Rp1546
ag3
(g16
g5
Ntp1547
Rp1548
ag3
(g11
g5
Ntp1549
Rp1550
ag3
(g40
g5
Ntp1551
Rp1552
ag3
(g19
g5
Ntp1553
Rp1554
ag3
(g4
g5
Ntp1555
Rp1556
ag3
(g40
g5
Ntp1557
Rp1558
ag3
(g16
g5
Ntp1559
Rp1560
ag3
(g22
g5
Ntp1561
Rp1562
ag3
(g11
g5
Ntp1563
Rp1564
ag3
(g19
g5
Ntp1565
Rp1566
ag3
(g4
g5
Ntp1567
Rp1568
ag3
(g16
g5
Ntp1569
Rp1570
ag3
(g8
g5
Ntp1571
Rp1572
ag3
(g4
g5
Ntp1573
Rp1574
ag3
(g40
g5
Ntp1575
Rp1576
ag3
(g22
g5
Ntp1577
Rp1578
ag3
(g16
g5
Ntp1579
Rp1580
ag3
(g8
g5
Ntp1581
Rp1582
ag3
(g11
g5
Ntp1583
Rp1584
ag3
(g19
g5
Ntp1585
Rp1586
ag3
(g8
g5
Ntp1587
Rp1588
ag3
(g40
g5
Ntp1589
Rp1590
ag3
(g8
g5
Ntp1591
Rp1592
ag3
(g16
g5
Ntp1593
Rp1594
ag3
(g11
g5
Ntp1595
Rp1596
ag3
(g19
g5
Ntp1597
Rp1598
ag3
(g4
g5
Ntp1599
Rp1600
ag3
(g19
g5
Ntp1601
Rp1602
ag3
(g22
g5
Ntp1603
Rp1604
ag3
(g19
g5
Ntp1605
Rp1606
ag3
(g16
g5
Ntp1607
Rp1608
ag3
(g11
g5
Ntp1609
Rp1610
ag3
(g40
g5
Ntp1611
Rp1612
ag3
(g40
g5
Ntp1613
Rp1614
ag3
(g22
g5
Ntp1615
Rp1616
ag3
(g4
g5
Ntp1617
Rp1618
ag3
(g8
g5
Ntp1619
Rp1620
ag3
(g40
g5
Ntp1621
Rp1622
ag3
(g4
g5
Ntp1623
Rp1624
ag3
(g19
g5
Ntp1625
Rp1626
ag3
(g22
g5
Ntp1627
Rp1628
ag3
(g16
g5
Ntp1629
Rp1630
ag3
(g8
g5
Ntp1631
Rp1632
ag3
(g11
g5
Ntp1633
Rp1634
ag3
(g4
g5
Ntp1635
Rp1636
ag3
(g16
g5
Ntp1637
Rp1638
ag3
(g4
g5
Ntp1639
Rp1640
ag3
(g16
g5
Ntp1641
Rp1642
ag3
(g8
g5
Ntp1643
Rp1644
ag3
(g11
g5
Ntp1645
Rp1646
ag3
(g22
g5
Ntp1647
Rp1648
ag3
(g40
g5
Ntp1649
Rp1650
ag3
(g19
g5
Ntp1651
Rp1652
ag3
(g8
g5
Ntp1653
Rp1654
ag3
(g40
g5
Ntp1655
Rp1656
ag3
(g11
g5
Ntp1657
Rp1658
ag3
(g4
g5
Ntp1659
Rp1660
ag3
(g19
g5
Ntp1661
Rp1662
ag3
(g4
g5
Ntp1663
Rp1664
ag3
(g22
g5
Ntp1665
Rp1666
ag3
(g16
g5
Ntp1667
Rp1668
ag3
(g22
g5
Ntp1669
Rp1670
ag3
(g8
g5
Ntp1671
Rp1672
ag3
(g16
g5
Ntp1673
Rp1674
ag3
(g40
g5
Ntp1675
Rp1676
ag3
(g19
g5
Ntp1677
Rp1678
ag3
(g4
g5
Ntp1679
Rp1680
ag3
(g19
g5
Ntp1681
Rp1682
ag3
(g11
g5
Ntp1683
Rp1684
ag3
(g8
g5
Ntp1685
Rp1686
ag3
(g22
g5
Ntp1687
Rp1688
ag3
(g19
g5
Ntp1689
Rp1690
ag3
(g16
g5
Ntp1691
Rp1692
ag3
(g40
g5
Ntp1693
Rp1694
ag3
(g11
g5
Ntp1695
Rp1696
ag3
(g11
g5
Ntp1697
Rp1698
ag3
(g4
g5
Ntp1699
Rp1700
ag3
(g16
g5
Ntp1701
Rp1702
ag3
(g19
g5
Ntp1703
Rp1704
ag3
(g8
g5
Ntp1705
Rp1706
ag3
(g11
g5
Ntp1707
Rp1708
ag3
(g4
g5
Ntp1709
Rp1710
ag3
(g40
g5
Ntp1711
Rp1712
ag3
(g22
g5
Ntp1713
Rp1714
ag3
(g8
g5
Ntp1715
Rp1716
ag3
(g40
g5
Ntp1717
Rp1718
ag3
(g4
g5
Ntp1719
Rp1720
ag3
(g19
g5
Ntp1721
Rp1722
ag3
(g8
g5
Ntp1723
Rp1724
ag3
(g11
g5
Ntp1725
Rp1726
ag3
(g22
g5
Ntp1727
Rp1728
ag3
(g40
g5
Ntp1729
Rp1730
ag3
(g16
g5
Ntp1731
Rp1732
ag3
(g16
g5
Ntp1733
Rp1734
ag3
(g11
g5
Ntp1735
Rp1736
ag3
(g4
g5
Ntp1737
Rp1738
ag3
(g40
g5
Ntp1739
Rp1740
ag3
(g22
g5
Ntp1741
Rp1742
ag3
(g8
g5
Ntp1743
Rp1744
ag3
(g19
g5
Ntp1745
Rp1746
ag3
(g8
g5
Ntp1747
Rp1748
ag3
(g4
g5
Ntp1749
Rp1750
ag3
(g16
g5
Ntp1751
Rp1752
ag3
(g19
g5
Ntp1753
Rp1754
ag3
(g11
g5
Ntp1755
Rp1756
ag3
(g4
g5
Ntp1757
Rp1758
ag3
(g22
g5
Ntp1759
Rp1760
ag3
(g40
g5
Ntp1761
Rp1762
aa(lp1763
g3
(g16
g5
Ntp1764
Rp1765
ag3
(g11
g5
Ntp1766
Rp1767
ag3
(g19
g5
Ntp1768
Rp1769
ag3
(g16
g5
Ntp1770
Rp1771
ag3
(g22
g5
Ntp1772
Rp1773
ag3
(g4
g5
Ntp1774
Rp1775
ag3
(g40
g5
Ntp1776
Rp1777
ag3
(g8
g5
Ntp1778
Rp1779
ag3
(g19
g5
Ntp1780
Rp1781
ag3
(g11
g5
Ntp1782
Rp1783
aas.